target datalayout = "e-m:e-p270:32:32-p271:32:32-p272:64:64-i64:64-i128:128-f80:128-n8:16:32:64-S128"
target triple = "x86_64-pc-linux-gnu"

%"class.llvm::MemoryBufferRef" = type { %"class.llvm::StringRef", %"class.llvm::StringRef" }
%"class.llvm::StringRef" = type { ptr, i64 }
%"struct.llvm::LTOModule" = type { %"class.std::unique_ptr.2", %"class.std::__cxx11::basic_string", %"class.std::unique_ptr", %"class.llvm::MemoryBufferRef", %"class.llvm::ModuleSymbolTable", %"class.std::unique_ptr.19", %"class.std::vector.27", %"class.llvm::StringSet", %"class.llvm::StringMap.32", %"class.std::vector.33" }
%"class.std::unique_ptr.2" = type { %"struct.std::__uniq_ptr_data.3" }
%"struct.std::__uniq_ptr_data.3" = type { %"class.std::__uniq_ptr_impl.4" }
%"class.std::__uniq_ptr_impl.4" = type { %"class.std::tuple.5" }
%"class.std::tuple.5" = type { %"struct.std::_Tuple_impl.6" }
%"struct.std::_Tuple_impl.6" = type { %"struct.std::_Head_base.9" }
%"struct.std::_Head_base.9" = type { ptr }
%"class.std::__cxx11::basic_string" = type { %"struct.std::__cxx11::basic_string<char>::_Alloc_hider", i64, %union.anon }
%"struct.std::__cxx11::basic_string<char>::_Alloc_hider" = type { ptr }
%union.anon = type { i64, [8 x i8] }
%"class.std::unique_ptr" = type { %"struct.std::__uniq_ptr_data" }
%"struct.std::__uniq_ptr_data" = type { %"class.std::__uniq_ptr_impl" }
%"class.std::__uniq_ptr_impl" = type { %"class.std::tuple" }
%"class.std::tuple" = type { %"struct.std::_Tuple_impl" }
%"struct.std::_Tuple_impl" = type { %"struct.std::_Head_base.1" }
%"struct.std::_Head_base.1" = type { ptr }
%"class.llvm::ModuleSymbolTable" = type { ptr, %"class.llvm::SpecificBumpPtrAllocator", %"class.std::vector", %"class.llvm::Mangler" }
%"class.llvm::SpecificBumpPtrAllocator" = type { %"class.llvm::BumpPtrAllocatorImpl" }
%"class.llvm::BumpPtrAllocatorImpl" = type { ptr, ptr, %"class.llvm::SmallVector", %"class.llvm::SmallVector.11", i64, i64 }
%"class.llvm::SmallVector" = type { %"class.llvm::SmallVectorImpl", %"struct.llvm::SmallVectorStorage" }
%"class.llvm::SmallVectorImpl" = type { %"class.llvm::SmallVectorTemplateBase" }
%"class.llvm::SmallVectorTemplateBase" = type { %"class.llvm::SmallVectorTemplateCommon" }
%"class.llvm::SmallVectorTemplateCommon" = type { %"class.llvm::SmallVectorBase" }
%"class.llvm::SmallVectorBase" = type { ptr, i32, i32 }
%"struct.llvm::SmallVectorStorage" = type { [32 x i8] }
%"class.llvm::SmallVector.11" = type { %"class.llvm::SmallVectorImpl.12" }
%"class.llvm::SmallVectorImpl.12" = type { %"class.llvm::SmallVectorTemplateBase.13" }
%"class.llvm::SmallVectorTemplateBase.13" = type { %"class.llvm::SmallVectorTemplateCommon.14" }
%"class.llvm::SmallVectorTemplateCommon.14" = type { %"class.llvm::SmallVectorBase" }
%"class.std::vector" = type { %"struct.std::_Vector_base" }
%"struct.std::_Vector_base" = type { %"struct.std::_Vector_base<llvm::PointerUnion<llvm::GlobalValue *, std::pair<std::__cxx11::basic_string<char>, unsigned int> *>, std::allocator<llvm::PointerUnion<llvm::GlobalValue *, std::pair<std::__cxx11::basic_string<char>, unsigned int> *>>>::_Vector_impl" }
%"struct.std::_Vector_base<llvm::PointerUnion<llvm::GlobalValue *, std::pair<std::__cxx11::basic_string<char>, unsigned int> *>, std::allocator<llvm::PointerUnion<llvm::GlobalValue *, std::pair<std::__cxx11::basic_string<char>, unsigned int> *>>>::_Vector_impl" = type { %"struct.std::_Vector_base<llvm::PointerUnion<llvm::GlobalValue *, std::pair<std::__cxx11::basic_string<char>, unsigned int> *>, std::allocator<llvm::PointerUnion<llvm::GlobalValue *, std::pair<std::__cxx11::basic_string<char>, unsigned int> *>>>::_Vector_impl_data" }
%"struct.std::_Vector_base<llvm::PointerUnion<llvm::GlobalValue *, std::pair<std::__cxx11::basic_string<char>, unsigned int> *>, std::allocator<llvm::PointerUnion<llvm::GlobalValue *, std::pair<std::__cxx11::basic_string<char>, unsigned int> *>>>::_Vector_impl_data" = type { ptr, ptr, ptr }
%"class.llvm::Mangler" = type { %"class.llvm::DenseMap" }
%"class.llvm::DenseMap" = type <{ ptr, i32, i32, i32, [4 x i8] }>
%"class.std::unique_ptr.19" = type { %"struct.std::__uniq_ptr_data.20" }
%"struct.std::__uniq_ptr_data.20" = type { %"class.std::__uniq_ptr_impl.21" }
%"class.std::__uniq_ptr_impl.21" = type { %"class.std::tuple.22" }
%"class.std::tuple.22" = type { %"struct.std::_Tuple_impl.23" }
%"struct.std::_Tuple_impl.23" = type { %"struct.std::_Head_base.26" }
%"struct.std::_Head_base.26" = type { ptr }
%"class.std::vector.27" = type { %"struct.std::_Vector_base.28" }
%"struct.std::_Vector_base.28" = type { %"struct.std::_Vector_base<llvm::LTOModule::NameAndAttributes, std::allocator<llvm::LTOModule::NameAndAttributes>>::_Vector_impl" }
%"struct.std::_Vector_base<llvm::LTOModule::NameAndAttributes, std::allocator<llvm::LTOModule::NameAndAttributes>>::_Vector_impl" = type { %"struct.std::_Vector_base<llvm::LTOModule::NameAndAttributes, std::allocator<llvm::LTOModule::NameAndAttributes>>::_Vector_impl_data" }
%"struct.std::_Vector_base<llvm::LTOModule::NameAndAttributes, std::allocator<llvm::LTOModule::NameAndAttributes>>::_Vector_impl_data" = type { ptr, ptr, ptr }
%"class.llvm::StringSet" = type { %"class.llvm::StringMap" }
%"class.llvm::StringMap" = type { %"class.llvm::StringMapImpl" }
%"class.llvm::StringMapImpl" = type { ptr, i32, i32, i32, i32 }
%"class.llvm::StringMap.32" = type { %"class.llvm::StringMapImpl" }
%"class.std::vector.33" = type { %"struct.std::_Vector_base.34" }
%"struct.std::_Vector_base.34" = type { %"struct.std::_Vector_base<llvm::StringRef, std::allocator<llvm::StringRef>>::_Vector_impl" }
%"struct.std::_Vector_base<llvm::StringRef, std::allocator<llvm::StringRef>>::_Vector_impl" = type { %"struct.std::_Vector_base<llvm::StringRef, std::allocator<llvm::StringRef>>::_Vector_impl_data" }
%"struct.std::_Vector_base<llvm::StringRef, std::allocator<llvm::StringRef>>::_Vector_impl_data" = type { ptr, ptr, ptr }
%"class.llvm::Twine" = type <{ %"union.llvm::Twine::Child", %"union.llvm::Twine::Child", i8, i8, [6 x i8] }>
%"union.llvm::Twine::Child" = type { %struct.anon }
%struct.anon = type { ptr, i64 }
%"class.std::optional" = type { %"struct.std::_Optional_base" }
%"struct.std::_Optional_base" = type { %"struct.std::_Optional_payload" }
%"struct.std::_Optional_payload" = type { %"struct.std::_Optional_payload_base" }
%"struct.std::_Optional_payload_base" = type { %"union.std::_Optional_payload_base<llvm::Align>::_Storage", i8 }
%"union.std::_Optional_payload_base<llvm::Align>::_Storage" = type { %"struct.std::_Optional_payload_base<llvm::Align>::_Empty_byte" }
%"struct.std::_Optional_payload_base<llvm::Align>::_Empty_byte" = type { i8 }
%"struct.llvm::AlignedCharArrayUnion.39" = type { [8 x i8] }
%"class.std::unique_ptr.43" = type { %"struct.std::__uniq_ptr_data.44" }
%"struct.std::__uniq_ptr_data.44" = type { %"class.std::__uniq_ptr_impl.45" }
%"class.std::__uniq_ptr_impl.45" = type { %"class.std::tuple.46" }
%"class.std::tuple.46" = type { %"struct.std::_Tuple_impl.47" }
%"struct.std::_Tuple_impl.47" = type { %"struct.std::_Head_base.50" }
%"struct.std::_Head_base.50" = type { ptr }
%"class.llvm::Triple" = type { %"class.std::__cxx11::basic_string", i32, i32, i32, i32, i32, i32 }
%"class.llvm::Module" = type <{ ptr, %"class.llvm::SymbolTableList", %"class.llvm::SymbolTableList.89", %"class.llvm::SymbolTableList.98", %"class.llvm::SymbolTableList.107", %"class.llvm::iplist", %"class.std::__cxx11::basic_string", %"class.std::unique_ptr.123", %"class.llvm::StringMap.131", %"class.std::unique_ptr.43", %"class.std::unique_ptr.132", %"class.std::__cxx11::basic_string", %"class.std::__cxx11::basic_string", %"class.std::__cxx11::basic_string", %"class.llvm::StringMap.140", %"class.llvm::DataLayout", %"class.llvm::StringMap.166", %"class.llvm::DenseMap.167", ptr, i8, [7 x i8] }>
%"class.llvm::SymbolTableList" = type { %"class.llvm::iplist_impl" }
%"class.llvm::iplist_impl" = type { %"class.llvm::simple_ilist" }
%"class.llvm::simple_ilist" = type { %"class.llvm::ilist_sentinel" }
%"class.llvm::ilist_sentinel" = type { %"class.llvm::ilist_node_impl" }
%"class.llvm::ilist_node_impl" = type { %"class.llvm::ilist_node_base" }
%"class.llvm::ilist_node_base" = type { %"class.llvm::ilist_detail::node_base_prevnext" }
%"class.llvm::ilist_detail::node_base_prevnext" = type { ptr, ptr }
%"class.llvm::SymbolTableList.89" = type { %"class.llvm::iplist_impl.90" }
%"class.llvm::iplist_impl.90" = type { %"class.llvm::simple_ilist.93" }
%"class.llvm::simple_ilist.93" = type { %"class.llvm::ilist_sentinel.95" }
%"class.llvm::ilist_sentinel.95" = type { %"class.llvm::ilist_node_impl.96" }
%"class.llvm::ilist_node_impl.96" = type { %"class.llvm::ilist_node_base" }
%"class.llvm::SymbolTableList.98" = type { %"class.llvm::iplist_impl.99" }
%"class.llvm::iplist_impl.99" = type { %"class.llvm::simple_ilist.102" }
%"class.llvm::simple_ilist.102" = type { %"class.llvm::ilist_sentinel.104" }
%"class.llvm::ilist_sentinel.104" = type { %"class.llvm::ilist_node_impl.105" }
%"class.llvm::ilist_node_impl.105" = type { %"class.llvm::ilist_node_base" }
%"class.llvm::SymbolTableList.107" = type { %"class.llvm::iplist_impl.108" }
%"class.llvm::iplist_impl.108" = type { %"class.llvm::simple_ilist.111" }
%"class.llvm::simple_ilist.111" = type { %"class.llvm::ilist_sentinel.113" }
%"class.llvm::ilist_sentinel.113" = type { %"class.llvm::ilist_node_impl.114" }
%"class.llvm::ilist_node_impl.114" = type { %"class.llvm::ilist_node_base" }
%"class.llvm::iplist" = type { %"class.llvm::iplist_impl.116" }
%"class.llvm::iplist_impl.116" = type { %"class.llvm::simple_ilist.118" }
%"class.llvm::simple_ilist.118" = type { %"class.llvm::ilist_sentinel.120" }
%"class.llvm::ilist_sentinel.120" = type { %"class.llvm::ilist_node_impl.121" }
%"class.llvm::ilist_node_impl.121" = type { %"class.llvm::ilist_node_base" }
%"class.std::unique_ptr.123" = type { %"struct.std::__uniq_ptr_data.124" }
%"struct.std::__uniq_ptr_data.124" = type { %"class.std::__uniq_ptr_impl.125" }
%"class.std::__uniq_ptr_impl.125" = type { %"class.std::tuple.126" }
%"class.std::tuple.126" = type { %"struct.std::_Tuple_impl.127" }
%"struct.std::_Tuple_impl.127" = type { %"struct.std::_Head_base.130" }
%"struct.std::_Head_base.130" = type { ptr }
%"class.llvm::StringMap.131" = type { %"class.llvm::StringMapImpl" }
%"class.std::unique_ptr.132" = type { %"struct.std::__uniq_ptr_data.133" }
%"struct.std::__uniq_ptr_data.133" = type { %"class.std::__uniq_ptr_impl.134" }
%"class.std::__uniq_ptr_impl.134" = type { %"class.std::tuple.135" }
%"class.std::tuple.135" = type { %"struct.std::_Tuple_impl.136" }
%"struct.std::_Tuple_impl.136" = type { %"struct.std::_Head_base.139" }
%"struct.std::_Head_base.139" = type { ptr }
%"class.llvm::StringMap.140" = type { %"class.llvm::StringMapImpl" }
%"class.llvm::DataLayout" = type { i8, i32, i32, i32, %"struct.llvm::MaybeAlign", %"struct.llvm::MaybeAlign", i32, i32, %"class.llvm::SmallVector.141", %"class.llvm::SmallVector.147", %"class.llvm::SmallVector.152", %"class.llvm::SmallVector.154", %"class.llvm::SmallVector.156", %"class.std::__cxx11::basic_string", %"struct.llvm::Align", %"struct.llvm::Align", ptr, %"class.llvm::SmallVector.161" }
%"struct.llvm::MaybeAlign" = type { %"class.std::optional" }
%"class.llvm::SmallVector.141" = type { %"class.llvm::SmallVectorImpl.142", %"struct.llvm::SmallVectorStorage.146" }
%"class.llvm::SmallVectorImpl.142" = type { %"class.llvm::SmallVectorTemplateBase.143" }
%"class.llvm::SmallVectorTemplateBase.143" = type { %"class.llvm::SmallVectorTemplateCommon.144" }
%"class.llvm::SmallVectorTemplateCommon.144" = type { %"class.llvm::SmallVectorBase.145" }
%"class.llvm::SmallVectorBase.145" = type { ptr, i64, i64 }
%"struct.llvm::SmallVectorStorage.146" = type { [8 x i8] }
%"class.llvm::SmallVector.147" = type { %"class.llvm::SmallVectorImpl.148", %"struct.llvm::SmallVectorStorage.151" }
%"class.llvm::SmallVectorImpl.148" = type { %"class.llvm::SmallVectorTemplateBase.149" }
%"class.llvm::SmallVectorTemplateBase.149" = type { %"class.llvm::SmallVectorTemplateCommon.150" }
%"class.llvm::SmallVectorTemplateCommon.150" = type { %"class.llvm::SmallVectorBase" }
%"struct.llvm::SmallVectorStorage.151" = type { [48 x i8] }
%"class.llvm::SmallVector.152" = type { %"class.llvm::SmallVectorImpl.148", %"struct.llvm::SmallVectorStorage.153" }
%"struct.llvm::SmallVectorStorage.153" = type { [32 x i8] }
%"class.llvm::SmallVector.154" = type { %"class.llvm::SmallVectorImpl.148", %"struct.llvm::SmallVectorStorage.155" }
%"struct.llvm::SmallVectorStorage.155" = type { [80 x i8] }
%"class.llvm::SmallVector.156" = type { %"class.llvm::SmallVectorImpl.157", %"struct.llvm::SmallVectorStorage.160" }
%"class.llvm::SmallVectorImpl.157" = type { %"class.llvm::SmallVectorTemplateBase.158" }
%"class.llvm::SmallVectorTemplateBase.158" = type { %"class.llvm::SmallVectorTemplateCommon.159" }
%"class.llvm::SmallVectorTemplateCommon.159" = type { %"class.llvm::SmallVectorBase" }
%"struct.llvm::SmallVectorStorage.160" = type { [128 x i8] }
%"struct.llvm::Align" = type { i8 }
%"class.llvm::SmallVector.161" = type { %"class.llvm::SmallVectorImpl.162", %"struct.llvm::SmallVectorStorage.165" }
%"class.llvm::SmallVectorImpl.162" = type { %"class.llvm::SmallVectorTemplateBase.163" }
%"class.llvm::SmallVectorTemplateBase.163" = type { %"class.llvm::SmallVectorTemplateCommon.164" }
%"class.llvm::SmallVectorTemplateCommon.164" = type { %"class.llvm::SmallVectorBase" }
%"struct.llvm::SmallVectorStorage.165" = type { [32 x i8] }
%"class.llvm::StringMap.166" = type { %"class.llvm::StringMapImpl" }
%"class.llvm::DenseMap.167" = type <{ ptr, i32, i32, i32, [4 x i8] }>
%"class.llvm::Expected.307" = type { %union.anon.308, i8, [7 x i8] }
%union.anon.308 = type { %"struct.llvm::AlignedCharArrayUnion.39" }

; Function Attrs: mustprogress nounwind uwtable
define linkonce_odr hidden noundef nonnull align 8 dereferenceable(8) ptr @_ZNSt10_Head_baseILm0EPN4llvm6ModuleELb0EE7_M_headERKS3_(ptr noundef nonnull align 8 dereferenceable(8) %0) #0 comdat align 2 {
  %2 = alloca ptr, align 8
  store ptr %0, ptr %2, align 8
  %3 = load ptr, ptr %2, align 8
  %4 = getelementptr inbounds nuw %"struct.std::_Head_base.1", ptr %3, i32 0, i32 0
  ret ptr %4
}

; Function Attrs: mustprogress nounwind uwtable
define linkonce_odr hidden noundef nonnull align 8 dereferenceable(8) ptr @_ZNSt11_Tuple_implILm0EJPN4llvm6ModuleESt14default_deleteIS1_EEE7_M_headERKS5_(ptr noundef nonnull align 8 dereferenceable(8) %0) #0 comdat align 2 {
  %2 = alloca ptr, align 8
  store ptr %0, ptr %2, align 8
  %3 = load ptr, ptr %2, align 8
  %4 = call noundef nonnull align 8 dereferenceable(8) ptr @_ZNSt10_Head_baseILm0EPN4llvm6ModuleELb0EE7_M_headERKS3_(ptr noundef nonnull align 8 dereferenceable(8) %3) #12
  ret ptr %4
}

; Function Attrs: mustprogress nounwind uwtable
define linkonce_odr noundef nonnull align 8 dereferenceable(8) ptr @_ZSt12__get_helperILm0EPN4llvm6ModuleEJSt14default_deleteIS1_EEERKT0_RKSt11_Tuple_implIXT_EJS5_DpT1_EE(ptr noundef nonnull align 8 dereferenceable(8) %0) #0 comdat {
  %2 = alloca ptr, align 8
  store ptr %0, ptr %2, align 8
  %3 = load ptr, ptr %2, align 8
  %4 = call noundef nonnull align 8 dereferenceable(8) ptr @_ZNSt11_Tuple_implILm0EJPN4llvm6ModuleESt14default_deleteIS1_EEE7_M_headERKS5_(ptr noundef nonnull align 8 dereferenceable(8) %3) #12
  ret ptr %4
}

; Function Attrs: mustprogress nounwind uwtable
define linkonce_odr noundef nonnull align 8 dereferenceable(8) ptr @_ZSt3getILm0EJPN4llvm6ModuleESt14default_deleteIS1_EEERKNSt13tuple_elementIXT_ESt5tupleIJDpT0_EEE4typeERKS9_(ptr noundef nonnull align 8 dereferenceable(8) %0) #0 comdat {
  %2 = alloca ptr, align 8
  store ptr %0, ptr %2, align 8
  %3 = load ptr, ptr %2, align 8
  %4 = call noundef nonnull align 8 dereferenceable(8) ptr @_ZSt12__get_helperILm0EPN4llvm6ModuleEJSt14default_deleteIS1_EEERKT0_RKSt11_Tuple_implIXT_EJS5_DpT1_EE(ptr noundef nonnull align 8 dereferenceable(8) %3) #12
  ret ptr %4
}

; Function Attrs: mustprogress nounwind uwtable
define linkonce_odr hidden noundef ptr @_ZNKSt15__uniq_ptr_implIN4llvm6ModuleESt14default_deleteIS1_EE6_M_ptrEv(ptr noundef nonnull align 8 dereferenceable(8) %0) #0 comdat align 2 {
  %2 = alloca ptr, align 8
  store ptr %0, ptr %2, align 8
  %3 = load ptr, ptr %2, align 8
  %4 = getelementptr inbounds nuw %"class.std::__uniq_ptr_impl", ptr %3, i32 0, i32 0
  %5 = call noundef nonnull align 8 dereferenceable(8) ptr @_ZSt3getILm0EJPN4llvm6ModuleESt14default_deleteIS1_EEERKNSt13tuple_elementIXT_ESt5tupleIJDpT0_EEE4typeERKS9_(ptr noundef nonnull align 8 dereferenceable(8) %4) #12
  %6 = load ptr, ptr %5, align 8
  ret ptr %6
}

; Function Attrs: mustprogress nounwind uwtable
define linkonce_odr hidden noundef ptr @_ZNKSt10unique_ptrIN4llvm6ModuleESt14default_deleteIS1_EE3getEv(ptr noundef nonnull align 8 dereferenceable(8) %0) #0 comdat align 2 {
  %2 = alloca ptr, align 8
  store ptr %0, ptr %2, align 8
  %3 = load ptr, ptr %2, align 8
  %4 = getelementptr inbounds nuw %"class.std::unique_ptr", ptr %3, i32 0, i32 0
  %5 = call noundef ptr @_ZNKSt15__uniq_ptr_implIN4llvm6ModuleESt14default_deleteIS1_EE6_M_ptrEv(ptr noundef nonnull align 8 dereferenceable(8) %4) #12
  ret ptr %5
}

; Function Attrs: mustprogress nounwind uwtable
define linkonce_odr hidden void @_ZN4llvm6TripleD2Ev(ptr noundef nonnull align 8 dereferenceable(56) %0) unnamed_addr #0 comdat align 2 {
  %2 = alloca ptr, align 8
  store ptr %0, ptr %2, align 8
  %3 = load ptr, ptr %2, align 8
  %4 = getelementptr inbounds nuw %"class.llvm::Triple", ptr %3, i32 0, i32 0
  call void @_ZNSt7__cxx1112basic_stringIcSt11char_traitsIcESaIcEED1Ev(ptr noundef nonnull align 8 dereferenceable(32) %4) #12
  ret void
}

; Function Attrs: mustprogress nounwind uwtable
define linkonce_odr hidden void @_ZN4llvm5TwineC2ERKNSt7__cxx1112basic_stringIcSt11char_traitsIcESaIcEEE(ptr noundef nonnull align 8 dereferenceable(34) %0, ptr noundef nonnull align 8 dereferenceable(32) %1) unnamed_addr #0 comdat align 2 {
  %3 = alloca ptr, align 8
  %4 = alloca ptr, align 8
  store ptr %0, ptr %3, align 8
  store ptr %1, ptr %4, align 8
  %5 = load ptr, ptr %3, align 8
  %6 = getelementptr inbounds nuw %"class.llvm::Twine", ptr %5, i32 0, i32 2
  store i8 4, ptr %6, align 8
  %7 = getelementptr inbounds nuw %"class.llvm::Twine", ptr %5, i32 0, i32 3
  store i8 1, ptr %7, align 1
  %8 = load ptr, ptr %4, align 8
  %9 = getelementptr inbounds nuw %"class.llvm::Twine", ptr %5, i32 0, i32 0
  store ptr %8, ptr %9, align 8
  ret void
}

; Function Attrs: mustprogress nounwind uwtable
define linkonce_odr hidden noundef nonnull align 8 dereferenceable(32) ptr @_ZNK4llvm6Module15getTargetTripleB5cxx11Ev(ptr noundef nonnull align 8 dereferenceable(857) %0) #0 comdat align 2 {
  %2 = alloca ptr, align 8
  store ptr %0, ptr %2, align 8
  %3 = load ptr, ptr %2, align 8
  %4 = getelementptr inbounds nuw %"class.llvm::Module", ptr %3, i32 0, i32 13
  ret ptr %4
}

; Function Attrs: mustprogress nounwind uwtable
define linkonce_odr hidden noundef ptr @_ZNKSt10unique_ptrIN4llvm6ModuleESt14default_deleteIS1_EEptEv(ptr noundef nonnull align 8 dereferenceable(8) %0) #0 comdat align 2 {
  %2 = alloca ptr, align 8
  store ptr %0, ptr %2, align 8
  %3 = load ptr, ptr %2, align 8
  %4 = call noundef ptr @_ZNKSt10unique_ptrIN4llvm6ModuleESt14default_deleteIS1_EE3getEv(ptr noundef nonnull align 8 dereferenceable(8) %3) #12
  ret ptr %4
}

; Function Attrs: mustprogress nounwind uwtable
define dso_local void @_ZNK4llvm9LTOModule18getMachOCPUSubTypeEv(ptr dead_on_unwind noalias writable sret(%"class.llvm::Expected.307") align 8 %0, ptr noundef nonnull align 8 dereferenceable(336) %1) #0 align 2 {
  %3 = alloca ptr, align 8
  %4 = alloca ptr, align 8
  %5 = alloca %"class.llvm::Triple", align 8
  %6 = alloca %"class.llvm::Twine", align 8
  store ptr %0, ptr %3, align 8
  store ptr %1, ptr %4, align 8
  %7 = load ptr, ptr %4, align 8
  %8 = getelementptr inbounds nuw %"struct.llvm::LTOModule", ptr %7, i32 0, i32 2
  %9 = call noundef ptr @_ZNKSt10unique_ptrIN4llvm6ModuleESt14default_deleteIS1_EEptEv(ptr noundef nonnull align 8 dereferenceable(8) %8) #12
  %10 = call noundef nonnull align 8 dereferenceable(32) ptr @_ZNK4llvm6Module15getTargetTripleB5cxx11Ev(ptr noundef nonnull align 8 dereferenceable(857) %9)
  call void @_ZN4llvm5TwineC2ERKNSt7__cxx1112basic_stringIcSt11char_traitsIcESaIcEEE(ptr noundef nonnull align 8 dereferenceable(34) %6, ptr noundef nonnull align 8 dereferenceable(32) %10)
  call void @_ZN4llvm6TripleC1ERKNS_5TwineE(ptr noundef nonnull align 8 dereferenceable(56) %5, ptr noundef nonnull align 8 dereferenceable(34) %6)
  call void @_ZN4llvm5MachO13getCPUSubTypeERKNS_6TripleE(ptr dead_on_unwind writable sret(%"class.llvm::Expected.307") align 8 %0, ptr noundef nonnull align 8 dereferenceable(56) %5)
  call void @_ZN4llvm6TripleD2Ev(ptr noundef nonnull align 8 dereferenceable(56) %5) #12
  ret void
}