; Function Attrs: mustprogress nounwind uwtable
define dso_local void @_ZNK4llvm9LTOModule18getMachOCPUSubTypeEv(ptr dead_on_unwind noalias writable sret(%"class.llvm::Expected.307") align 8 %0, ptr nocapture noundef nonnull readonly align 8 dereferenceable(336) %1) local_unnamed_addr #0 align 2 {
  %3 = alloca %"class.llvm::Triple", align 8
  %4 = alloca %"class.llvm::Twine", align 8
  %5 = getelementptr inbounds nuw i8, ptr %1, i64 40
  %6 = load ptr, ptr %5, align 8
  %7 = getelementptr inbounds nuw i8, ptr %6, i64 232
  %8 = getelementptr inbounds nuw i8, ptr %4, i64 32
  store i8 4, ptr %8, align 8
  %9 = getelementptr inbounds nuw i8, ptr %4, i64 33
  store i8 1, ptr %9, align 1
  store ptr %7, ptr %4, align 8
  call void @_ZN4llvm6TripleC1ERKNS_5TwineE(ptr noundef nonnull align 8 dereferenceable(56) %3, ptr noundef nonnull align 8 dereferenceable(34) %4) #17
  call void @_ZN4llvm5MachO13getCPUSubTypeERKNS_6TripleE(ptr dead_on_unwind writable sret(%"class.llvm::Expected.307") align 8 %0, ptr noundef nonnull align 8 dereferenceable(56) %3) #17
  call void @_ZNSt7__cxx1112basic_stringIcSt11char_traitsIcESaIcEED1Ev(ptr noundef nonnull align 8 dereferenceable(32) %3) #17
  ret void
}